target datalayout = "e-m:e-p270:32:32-p271:32:32-p272:64:64-i64:64-i128:128-f80:128-n8:16:32:64-S128"
target triple = "x86_64-pc-linux-gnu"

; Function Attrs: inlinehint nounwind uwtable
define internal i32 @strtoul_ui(ptr noundef %0, i32 noundef %1, ptr noundef %2) #1 {
  %4 = alloca i32, align 4
  %5 = alloca ptr, align 8
  %6 = alloca i32, align 4
  %7 = alloca ptr, align 8
  %8 = alloca i64, align 8
  %9 = alloca ptr, align 8
  %10 = alloca i32, align 4
  store ptr %0, ptr %5, align 8, !tbaa !13
  store i32 %1, ptr %6, align 4, !tbaa !15
  store ptr %2, ptr %7, align 8, !tbaa !217
  call void @llvm.lifetime.start.p0(i64 8, ptr %8) #11
  call void @llvm.lifetime.start.p0(i64 8, ptr %9) #11
  %11 = call ptr @__errno_location() #14
  store i32 0, ptr %11, align 4, !tbaa !15
  %12 = load ptr, ptr %5, align 8, !tbaa !13
  %13 = call ptr @strchr(ptr noundef %12, i32 noundef 45) #12
  %14 = icmp ne ptr %13, null
  br i1 %14, label %15, label %16

15:                                               ; preds = %3
  store i32 -1, ptr %4, align 4
  store i32 1, ptr %10, align 4
  br label %43

16:                                               ; preds = %3
  %17 = load ptr, ptr %5, align 8, !tbaa !13
  %18 = load i32, ptr %6, align 4, !tbaa !15
  %19 = call i64 @strtoul(ptr noundef %17, ptr noundef %9, i32 noundef %18) #11
  store i64 %19, ptr %8, align 8, !tbaa !71
  %20 = call ptr @__errno_location() #14
  %21 = load i32, ptr %20, align 4, !tbaa !15
  %22 = icmp ne i32 %21, 0
  br i1 %22, label %38, label %23

23:                                               ; preds = %16
  %24 = load ptr, ptr %9, align 8, !tbaa !13
  %25 = load i8, ptr %24, align 1, !tbaa !14
  %26 = sext i8 %25 to i32
  %27 = icmp ne i32 %26, 0
  br i1 %27, label %38, label %28

28:                                               ; preds = %23
  %29 = load ptr, ptr %9, align 8, !tbaa !13
  %30 = load ptr, ptr %5, align 8, !tbaa !13
  %31 = icmp eq ptr %29, %30
  br i1 %31, label %38, label %32

32:                                               ; preds = %28
  %33 = load i64, ptr %8, align 8, !tbaa !71
  %34 = trunc i64 %33 to i32
  %35 = zext i32 %34 to i64
  %36 = load i64, ptr %8, align 8, !tbaa !71
  %37 = icmp ne i64 %35, %36
  br i1 %37, label %38, label %39

38:                                               ; preds = %32, %28, %23, %16
  store i32 -1, ptr %4, align 4
  store i32 1, ptr %10, align 4
  br label %43

39:                                               ; preds = %32
  %40 = load i64, ptr %8, align 8, !tbaa !71
  %41 = trunc i64 %40 to i32
  %42 = load ptr, ptr %7, align 8, !tbaa !217
  store i32 %41, ptr %42, align 4, !tbaa !15
  store i32 0, ptr %4, align 4
  store i32 1, ptr %10, align 4
  br label %43

43:                                               ; preds = %39, %38, %15
  call void @llvm.lifetime.end.p0(i64 8, ptr %9) #11
  call void @llvm.lifetime.end.p0(i64 8, ptr %8) #11
  %44 = load i32, ptr %4, align 4
  ret i32 %44
}