; Function Attrs: inlinehint mustprogress nofree nounwind willreturn uwtable
define internal fastcc range(i32 -1, 1) i32 @strtoul_ui(ptr noundef %0, ptr noundef writeonly captures(none) %1) unnamed_addr #16 {
  %3 = alloca ptr, align 8
  call void @llvm.lifetime.start.p0(i64 8, ptr nonnull %3) #23
  %4 = tail call ptr @__errno_location() #26
  store i32 0, ptr %4, align 4, !tbaa !4
  %5 = tail call ptr @strchr(ptr noundef nonnull dereferenceable(1) %0, i32 noundef 45) #24
  %.not = icmp eq ptr %5, null
  br i1 %.not, label %6, label %15

6:                                                ; preds = %2
  %7 = call i64 @strtoul(ptr noundef nonnull %0, ptr noundef nonnull %3, i32 noundef 10) #23
  %8 = load i32, ptr %4, align 4, !tbaa !4
  %.not8 = icmp eq i32 %8, 0
  br i1 %.not8, label %9, label %15

9:                                                ; preds = %6
  %10 = load ptr, ptr %3, align 8, !tbaa !59
  %11 = load i8, ptr %10, align 1, !tbaa !15
  %.not9 = icmp eq i8 %11, 0
  %12 = icmp ne ptr %10, %0
  %or.cond.not13 = and i1 %12, %.not9
  %.not10 = icmp ult i64 %7, 4294967296
  %or.cond11 = select i1 %or.cond.not13, i1 %.not10, i1 false
  br i1 %or.cond11, label %13, label %15

13:                                               ; preds = %9
  %14 = trunc nuw i64 %7 to i32
  store i32 %14, ptr %1, align 4, !tbaa !4
  br label %15

15:                                               ; preds = %6, %9, %2, %13
  %.0 = phi i32 [ 0, %13 ], [ -1, %2 ], [ -1, %9 ], [ -1, %6 ]
  call void @llvm.lifetime.end.p0(i64 8, ptr nonnull %3) #23
  ret i32 %.0
}